target datalayout = "e-m:e-p270:32:32-p271:32:32-p272:64:64-i64:64-i128:128-f80:128-n8:16:32:64-S128"
target triple = "x86_64-pc-linux-gnu"

%struct.AVFilterContext = type { ptr, ptr, ptr, ptr, ptr, i32, ptr, ptr, i32, ptr, ptr, i32, i32, ptr, ptr, ptr, ptr, i32, ptr, i32, i32 }
%struct.AmplifyContext = type { ptr, ptr, i32, float, float, float, i32, float, float, i32, i32, i32, i32, [4 x i32], [4 x i32], ptr }

; Function Attrs: cold nounwind optsize uwtable
define internal i32 @init(ptr noundef %0) #0 {
  %2 = alloca i32, align 4
  %3 = alloca ptr, align 8
  %4 = alloca ptr, align 8
  %5 = alloca i32, align 4
  store ptr %0, ptr %3, align 8, !tbaa !4
  call void @llvm.lifetime.start.p0(i64 8, ptr %4) #9
  %6 = load ptr, ptr %3, align 8, !tbaa !4
  %7 = getelementptr inbounds nuw %struct.AVFilterContext, ptr %6, i32 0, i32 9
  %8 = load ptr, ptr %7, align 8, !tbaa !9
  store ptr %8, ptr %4, align 8, !tbaa !22
  %9 = load ptr, ptr %4, align 8, !tbaa !22
  %10 = getelementptr inbounds nuw %struct.AmplifyContext, ptr %9, i32 0, i32 2
  %11 = load i32, ptr %10, align 8, !tbaa !24
  %12 = mul nsw i32 %11, 2
  %13 = add nsw i32 %12, 1
  %14 = load ptr, ptr %4, align 8, !tbaa !22
  %15 = getelementptr inbounds nuw %struct.AmplifyContext, ptr %14, i32 0, i32 9
  store i32 %13, ptr %15, align 4, !tbaa !29
  %16 = load ptr, ptr %4, align 8, !tbaa !22
  %17 = getelementptr inbounds nuw %struct.AmplifyContext, ptr %16, i32 0, i32 9
  %18 = load i32, ptr %17, align 4, !tbaa !29
  %19 = sext i32 %18 to i64
  %20 = call noalias ptr @av_calloc(i64 noundef %19, i64 noundef 8)
  %21 = load ptr, ptr %4, align 8, !tbaa !22
  %22 = getelementptr inbounds nuw %struct.AmplifyContext, ptr %21, i32 0, i32 15
  store ptr %20, ptr %22, align 8, !tbaa !30
  %23 = load ptr, ptr %4, align 8, !tbaa !22
  %24 = getelementptr inbounds nuw %struct.AmplifyContext, ptr %23, i32 0, i32 15
  %25 = load ptr, ptr %24, align 8, !tbaa !30
  %26 = icmp ne ptr %25, null
  br i1 %26, label %28, label %27

27:                                               ; preds = %1
  store i32 -12, ptr %2, align 4
  store i32 1, ptr %5, align 4
  br label %29

28:                                               ; preds = %1
  store i32 0, ptr %2, align 4
  store i32 1, ptr %5, align 4
  br label %29

29:                                               ; preds = %28, %27
  call void @llvm.lifetime.end.p0(i64 8, ptr %4) #9
  %30 = load i32, ptr %2, align 4
  ret i32 %30
}