; Function Attrs: cold nounwind optsize uwtable
define internal range(i32 -12, 1) i32 @init(ptr noundef readonly captures(none) %0) #0 {
  %2 = getelementptr inbounds nuw i8, ptr %0, i64 72
  %3 = load ptr, ptr %2, align 8, !tbaa !4
  %4 = getelementptr inbounds nuw i8, ptr %3, i64 16
  %5 = load i32, ptr %4, align 8, !tbaa !20
  %6 = shl nsw i32 %5, 1
  %7 = or disjoint i32 %6, 1
  %8 = getelementptr inbounds nuw i8, ptr %3, i64 44
  store i32 %7, ptr %8, align 4, !tbaa !25
  %9 = sext i32 %7 to i64
  %10 = tail call noalias ptr @av_calloc(i64 noundef %9, i64 noundef 8) #8
  %11 = getelementptr inbounds nuw i8, ptr %3, i64 96
  store ptr %10, ptr %11, align 8, !tbaa !26
  %.not = icmp eq ptr %10, null
  %. = select i1 %.not, i32 -12, i32 0
  ret i32 %.
}